target datalayout = "e-m:e-p270:32:32-p271:32:32-p272:64:64-i64:64-i128:128-f80:128-n8:16:32:64-S128"
target triple = "x86_64-pc-linux-gnu"

%struct.stat = type { i64, i64, i64, i32, i32, i32, i32, i64, i64, i64, i64, %struct.timespec, %struct.timespec, %struct.timespec, [3 x i64] }
%struct.timespec = type { i64, i64 }

@.str.18 = private unnamed_addr constant [47 x i8] c"ooxml_updatelimits: Can't fstat descriptor %d\0A\00", align 1
@.str.69 = private unnamed_addr constant [25 x i8] c"in ooxml_parse_document\0A\00", align 1
@.str.70 = private unnamed_addr constant [15 x i8] c"properties.xml\00", align 1
@.str.71 = private unnamed_addr constant [44 x i8] c"ooxml_parse_document: xmlReaderForFd error\0A\00", align 1
@num_ooxml_keys = internal global i64 40, align 8
@.str.72 = private unnamed_addr constant [72 x i8] c"ooxml_parse_document: encountered issue in parsing properties document\0A\00", align 1

; Function Attrs: nounwind uwtable
define internal i32 @ooxml_updatelimits(i32 noundef %0, ptr noundef %1) #0 {
  %3 = alloca i32, align 4
  %4 = alloca i32, align 4
  %5 = alloca ptr, align 8
  %6 = alloca %struct.stat, align 8
  store i32 %0, ptr %4, align 4
  store ptr %1, ptr %5, align 8
  %7 = load i32, ptr %4, align 4
  %8 = call i32 @fstat(i32 noundef %7, ptr noundef %6) #6
  %9 = icmp eq i32 %8, -1
  br i1 %9, label %10, label %12

10:                                               ; preds = %2
  %11 = load i32, ptr %4, align 4
  call void (ptr, ...) @cli_errmsg(ptr noundef @.str.18, i32 noundef %11)
  store i32 11, ptr %3, align 4
  br label %17

12:                                               ; preds = %2
  %13 = load ptr, ptr %5, align 8
  %14 = getelementptr inbounds %struct.stat, ptr %6, i32 0, i32 8
  %15 = load i64, ptr %14, align 8
  %16 = call i32 @cli_updatelimits(ptr noundef %13, i64 noundef %15)
  store i32 %16, ptr %3, align 4
  br label %17

17:                                               ; preds = %12, %10
  %18 = load i32, ptr %3, align 4
  ret i32 %18
}

; Function Attrs: nounwind uwtable
define internal i32 @ooxml_parse_document(i32 noundef %0, ptr noundef %1) #0 {
  %3 = alloca i32, align 4
  %4 = alloca i32, align 4
  %5 = alloca ptr, align 8
  %6 = alloca i32, align 4
  %7 = alloca ptr, align 8
  store i32 %0, ptr %4, align 4
  store ptr %1, ptr %5, align 8
  store i32 0, ptr %6, align 4
  store ptr null, ptr %7, align 8
  call void (ptr, ...) @cli_dbgmsg(ptr noundef @.str.69)
  %8 = load i32, ptr %4, align 4
  %9 = load ptr, ptr %5, align 8
  %10 = call i32 @ooxml_updatelimits(i32 noundef %8, ptr noundef %9)
  store i32 %10, ptr %6, align 4
  %11 = load i32, ptr %6, align 4
  %12 = icmp ne i32 %11, 0
  br i1 %12, label %13, label %15

13:                                               ; preds = %2
  %14 = load i32, ptr %6, align 4
  store i32 %14, ptr %3, align 4
  br label %40

15:                                               ; preds = %2
  %16 = load i32, ptr %4, align 4
  %17 = call ptr @xmlReaderForFd(i32 noundef %16, ptr noundef @.str.70, ptr noundef null, i32 noundef 2080)
  store ptr %17, ptr %7, align 8
  %18 = load ptr, ptr %7, align 8
  %19 = icmp eq ptr %18, null
  br i1 %19, label %20, label %21

20:                                               ; preds = %15
  call void (ptr, ...) @cli_dbgmsg(ptr noundef @.str.71)
  store i32 0, ptr %3, align 4
  br label %40

21:                                               ; preds = %15
  %22 = load ptr, ptr %5, align 8
  %23 = load ptr, ptr %7, align 8
  %24 = load i64, ptr @num_ooxml_keys, align 8
  %25 = call i32 @cli_msxml_parse_document(ptr noundef %22, ptr noundef %23, ptr noundef @ooxml_keys, i64 noundef %24, i32 noundef 1, ptr noundef null)
  store i32 %25, ptr %6, align 4
  %26 = load i32, ptr %6, align 4
  %27 = icmp ne i32 %26, 0
  br i1 %27, label %28, label %35

28:                                               ; preds = %21
  %29 = load i32, ptr %6, align 4
  %30 = icmp ne i32 %29, 21
  br i1 %30, label %31, label %35

31:                                               ; preds = %28
  %32 = load i32, ptr %6, align 4
  %33 = icmp ne i32 %32, 22
  br i1 %33, label %34, label %35

34:                                               ; preds = %31
  call void (ptr, ...) @cli_warnmsg(ptr noundef @.str.72)
  br label %35

35:                                               ; preds = %34, %31, %28, %21
  %36 = load ptr, ptr %7, align 8
  %37 = call i32 @xmlTextReaderClose(ptr noundef %36)
  %38 = load ptr, ptr %7, align 8
  call void @xmlFreeTextReader(ptr noundef %38)
  %39 = load i32, ptr %6, align 4
  store i32 %39, ptr %3, align 4
  br label %40

40:                                               ; preds = %35, %20, %13
  %41 = load i32, ptr %3, align 4
  ret i32 %41
}