; Function Attrs: nounwind uwtable
define internal fastcc i32 @ooxml_parse_document(i32 noundef %0, ptr noundef %1) unnamed_addr #0 {
  %3 = alloca %struct.stat, align 8
  tail call void (ptr, ...) @cli_dbgmsg(ptr noundef nonnull @.str.69) #6
  call void @llvm.lifetime.start.p0(i64 144, ptr nonnull %3)
  %4 = call i32 @fstat(i32 noundef %0, ptr noundef nonnull %3) #6
  %5 = icmp eq i32 %4, -1
  br i1 %5, label %ooxml_updatelimits.exit.thread, label %ooxml_updatelimits.exit

ooxml_updatelimits.exit.thread:                   ; preds = %2
  tail call void (ptr, ...) @cli_errmsg(ptr noundef nonnull @.str.18, i32 noundef %0) #6
  call void @llvm.lifetime.end.p0(i64 144, ptr nonnull %3)
  br label %18

ooxml_updatelimits.exit:                          ; preds = %2
  %6 = getelementptr inbounds i8, ptr %3, i64 48
  %7 = load i64, ptr %6, align 8
  %8 = tail call i32 @cli_updatelimits(ptr noundef %1, i64 noundef %7) #6
  call void @llvm.lifetime.end.p0(i64 144, ptr nonnull %3)
  %.not = icmp eq i32 %8, 0
  br i1 %.not, label %9, label %18

9:                                                ; preds = %ooxml_updatelimits.exit
  %10 = tail call ptr @xmlReaderForFd(i32 noundef %0, ptr noundef nonnull @.str.70, ptr noundef null, i32 noundef 2080) #6
  %11 = icmp eq ptr %10, null
  br i1 %11, label %12, label %13

12:                                               ; preds = %9
  tail call void (ptr, ...) @cli_dbgmsg(ptr noundef nonnull @.str.71) #6
  br label %18

13:                                               ; preds = %9
  %14 = tail call i32 @cli_msxml_parse_document(ptr noundef %1, ptr noundef nonnull %10, ptr noundef nonnull @ooxml_keys, i64 noundef 40, i32 noundef 1, ptr noundef null) #6
  switch i32 %14, label %15 [
    i32 22, label %16
    i32 21, label %16
    i32 0, label %16
  ]

15:                                               ; preds = %13
  tail call void (ptr, ...) @cli_warnmsg(ptr noundef nonnull @.str.72) #6
  br label %16

16:                                               ; preds = %13, %13, %13, %15
  %17 = tail call i32 @xmlTextReaderClose(ptr noundef nonnull %10) #6
  tail call void @xmlFreeTextReader(ptr noundef nonnull %10) #6
  br label %18

18:                                               ; preds = %ooxml_updatelimits.exit.thread, %ooxml_updatelimits.exit, %16, %12
  %.0 = phi i32 [ 0, %12 ], [ %14, %16 ], [ %8, %ooxml_updatelimits.exit ], [ 11, %ooxml_updatelimits.exit.thread ]
  ret i32 %.0
}